Certificate:
    Data:
        Version: 3 (0x2)
        Serial Number:
            54:af:2f:90:fc:f3:a9:96:eb:ed:97:14:ff:11:57:0e
        Signature Algorithm: sha256WithRSAEncryption
        Issuer: CN=Easy-RSA CA
        Validity
            Not Before: Oct 17 13:54:48 2024 GMT
            Not After : Oct 12 13:54:48 2044 GMT
        Subject: CN=pioxii-imperatriz
        Subject Public Key Info:
            Public Key Algorithm: rsaEncryption
                RSA Public-Key: (2048 bit)
                Modulus:
                    00:b8:93:e6:7c:60:7f:78:a8:cd:d8:f2:db:7a:df:
                    28:f0:94:18:aa:1d:42:67:89:35:bb:ff:e0:a2:a9:
                    01:e0:a2:42:4a:5a:89:6c:b1:e1:85:fd:26:ca:cf:
                    e0:10:1c:d8:f7:88:d3:bd:a8:4d:bc:62:5a:9b:ea:
                    99:92:26:fc:6c:11:2c:2d:2f:71:32:90:40:33:f8:
                    91:59:ad:f2:30:8c:b0:e2:2f:58:3a:60:2c:fb:ac:
                    ee:4b:94:a5:50:5a:96:c7:08:f6:26:43:6b:58:f6:
                    5e:28:46:26:ce:38:0c:2c:a2:c9:08:b0:ea:f1:11:
                    fe:df:70:cd:a0:1f:14:e7:7d:02:32:a2:e3:8a:40:
                    7b:b8:cc:a7:17:dd:b8:bf:0d:5d:3e:2e:ae:b4:00:
                    db:98:08:f9:04:c7:5c:f3:57:6c:48:69:e6:7b:6f:
                    ed:4d:6b:17:7c:7e:7d:97:20:2b:1b:4b:85:10:6a:
                    5a:1d:a2:ba:44:68:c9:6a:4a:56:d8:4a:b0:e0:11:
                    f0:68:c0:01:00:f3:d5:49:7b:a2:fc:35:dc:0a:6d:
                    a8:31:86:b4:22:2f:14:51:13:40:45:3c:c3:14:a1:
                    e9:b3:86:ef:50:a4:b1:a7:3b:f6:bc:7c:67:0e:a3:
                    a2:52:59:72:f6:5c:f0:f8:10:e9:cc:3e:b7:bc:17:
                    35:bf
                Exponent: 65537 (0x10001)
        X509v3 extensions:
            X509v3 Basic Constraints: 
                CA:FALSE
            X509v3 Subject Key Identifier: 
                C3:B7:0E:84:18:6F:8A:78:B3:20:45:79:A9:CC:81:B1:F7:AF:C3:32
            X509v3 Authority Key Identifier: 
                keyid:64:06:69:A7:01:46:09:D3:AD:13:65:D7:8F:B0:B5:01:30:68:56:A3
                DirName:/CN=Easy-RSA CA
                serial:46:63:8B:79:F4:01:F9:21:00:BF:FE:15:EA:E6:F3:96:E2:F2:83:F8

            X509v3 Extended Key Usage: 
                TLS Web Client Authentication
            X509v3 Key Usage: 
                Digital Signature
    Signature Algorithm: sha256WithRSAEncryption
         4d:17:7e:62:4f:99:6f:dd:2b:82:6f:64:6d:4a:22:f9:1b:34:
         c2:a3:a2:a2:65:6c:4b:c1:84:d0:d4:97:2d:0b:76:17:7c:39:
         a6:ae:bd:e7:ed:35:c9:90:1a:a7:c8:98:8b:f6:25:29:04:cc:
         4c:bd:49:aa:64:48:ed:9b:32:37:24:34:d3:b1:54:7a:f3:cc:
         bc:b5:64:c5:0a:f9:41:12:f3:55:7c:3a:2f:75:26:e1:2b:f2:
         e1:85:fb:61:25:7c:33:dc:a7:c4:89:0a:27:ab:fb:c1:3f:30:
         7f:46:02:1c:c8:bb:08:c3:e4:d6:1f:59:6d:e8:32:62:9c:70:
         c1:0b:d7:6d:82:5c:ac:cc:5f:3b:d0:05:99:8d:9b:2e:e1:a9:
         fd:8f:a3:1a:82:53:fb:1f:b1:11:5a:ad:1d:39:f3:35:e6:5d:
         2a:1c:75:1c:95:36:78:3b:c9:b3:7a:0e:10:b1:97:f9:9e:9b:
         ac:b6:14:6b:98:06:c5:5f:53:d9:22:85:4a:a0:94:c7:19:f3:
         17:54:b9:e2:13:e7:49:14:16:88:2d:e1:8e:c3:f6:95:de:d8:
         2f:ee:e4:a5:90:88:11:47:70:28:4f:ec:1d:10:e7:1c:fc:29:
         7c:1f:c5:fb:48:f1:8b:d4:c1:fa:8c:1e:d5:b8:1d:66:3e:8e:
         e9:bc:ce:80
-----BEGIN CERTIFICATE-----
MIIDXzCCAkegAwIBAgIQVK8vkPzzqZbr7ZcU/xFXDjANBgkqhkiG9w0BAQsFADAW
MRQwEgYDVQQDDAtFYXN5LVJTQSBDQTAeFw0yNDEwMTcxMzU0NDhaFw00NDEwMTIx
MzU0NDhaMBwxGjAYBgNVBAMMEXBpb3hpaS1pbXBlcmF0cml6MIIBIjANBgkqhkiG
9w0BAQEFAAOCAQ8AMIIBCgKCAQEAuJPmfGB/eKjN2PLbet8o8JQYqh1CZ4k1u//g
oqkB4KJCSlqJbLHhhf0mys/gEBzY94jTvahNvGJam+qZkib8bBEsLS9xMpBAM/iR
Wa3yMIyw4i9YOmAs+6zuS5SlUFqWxwj2JkNrWPZeKEYmzjgMLKLJCLDq8RH+33DN
oB8U530CMqLjikB7uMynF924vw1dPi6utADbmAj5BMdc81dsSGnme2/tTWsXfH59
lyArG0uFEGpaHaK6RGjJakpW2Eqw4BHwaMABAPPVSXui/DXcCm2oMYa0Ii8UURNA
RTzDFKHps4bvUKSxpzv2vHxnDqOiUlly9lzw+BDpzD63vBc1vwIDAQABo4GiMIGf
MAkGA1UdEwQCMAAwHQYDVR0OBBYEFMO3DoQYb4p4syBFeanMgbH3r8MyMFEGA1Ud
IwRKMEiAFGQGaacBRgnTrRNl14+wtQEwaFajoRqkGDAWMRQwEgYDVQQDDAtFYXN5
LVJTQSBDQYIURmOLefQB+SEAv/4V6ubzluLyg/gwEwYDVR0lBAwwCgYIKwYBBQUH
AwIwCwYDVR0PBAQDAgeAMA0GCSqGSIb3DQEBCwUAA4IBAQBNF35iT5lv3SuCb2Rt
SiL5GzTCo6KiZWxLwYTQ1JctC3YXfDmmrr3n7TXJkBqnyJiL9iUpBMxMvUmqZEjt
mzI3JDTTsVR688y8tWTFCvlBEvNVfDovdSbhK/LhhfthJXwz3KfEiQonq/vBPzB/
RgIcyLsIw+TWH1lt6DJinHDBC9dtglyszF870AWZjZsu4an9j6MaglP7H7ERWq0d
OfM15l0qHHUclTZ4O8mzeg4QsZf5npusthRrmAbFX1PZIoVKoJTHGfMXVLniE+dJ
FBaILeGOw/aV3tgv7uSlkIgRR3AoT+wdEOcc/Cl8H8X7SPGL1MH6jB7VuB1mPo7p
vM6A
-----END CERTIFICATE-----
