Certificate:
    Data:
        Version: 3 (0x2)
        Serial Number:
            6e:3b:60:0c:d2:7a:de:ea:d0:f8:b4:b1:f4:95:27:9b
        Signature Algorithm: sha256WithRSAEncryption
        Issuer: CN=Easy-RSA CA
        Validity
            Not Before: Nov  1 20:36:16 2024 GMT
            Not After : Oct 27 20:36:16 2044 GMT
        Subject: CN=pioxii-barretos
        Subject Public Key Info:
            Public Key Algorithm: rsaEncryption
                RSA Public-Key: (2048 bit)
                Modulus:
                    00:f2:f0:7a:2b:05:74:24:9c:90:70:72:71:aa:a0:
                    36:26:dc:d1:24:8b:81:9f:c9:b7:cf:46:a0:3b:e1:
                    fa:f8:47:3b:cb:08:f0:5a:70:f4:fc:50:a3:e2:90:
                    9e:5c:d9:52:01:fc:10:a3:b2:02:f4:d9:82:e5:cc:
                    6c:63:71:f5:e5:b5:2a:e0:94:4a:4a:24:cf:c6:3a:
                    49:4d:58:61:28:56:cb:5c:c3:03:92:fe:3b:60:78:
                    ac:61:73:10:1c:00:92:d0:ca:57:3f:21:3b:b9:a7:
                    37:03:64:de:42:c4:12:30:b4:a0:8f:0a:15:cf:03:
                    75:e7:f9:bd:fe:ff:ac:29:fe:24:96:76:78:88:cd:
                    22:1b:84:ea:ff:9b:57:29:27:fc:93:25:1c:73:52:
                    b5:c3:bc:f0:53:d3:ce:3c:24:3a:00:93:85:a1:f6:
                    21:06:61:3d:5c:b9:50:97:b8:84:1b:46:75:cb:77:
                    d9:21:95:d6:81:55:bd:e3:2d:6d:be:a9:6b:47:b0:
                    2a:d3:a3:11:4b:2d:36:fd:80:5b:d2:53:5a:89:2c:
                    79:ad:06:33:95:1a:25:3e:da:79:b4:47:40:0e:6f:
                    b2:92:7c:8e:c0:4f:af:1d:b9:ce:bd:08:78:3a:93:
                    c0:ad:26:4e:dc:3d:ec:97:f2:28:dc:69:fa:2f:7f:
                    3c:05
                Exponent: 65537 (0x10001)
        X509v3 extensions:
            X509v3 Basic Constraints: 
                CA:FALSE
            X509v3 Subject Key Identifier: 
                6C:B7:C9:96:F2:8A:78:7B:B9:B0:73:2B:5C:7D:79:B2:55:95:61:BC
            X509v3 Authority Key Identifier: 
                keyid:64:06:69:A7:01:46:09:D3:AD:13:65:D7:8F:B0:B5:01:30:68:56:A3
                DirName:/CN=Easy-RSA CA
                serial:46:63:8B:79:F4:01:F9:21:00:BF:FE:15:EA:E6:F3:96:E2:F2:83:F8

            X509v3 Extended Key Usage: 
                TLS Web Client Authentication
            X509v3 Key Usage: 
                Digital Signature
    Signature Algorithm: sha256WithRSAEncryption
         9c:d2:f8:78:7c:fd:6e:5e:d5:0c:13:ca:e1:8e:4c:82:79:cd:
         5c:b6:63:b5:53:03:25:a1:8d:cb:fe:c3:cc:8f:9d:6e:c6:bc:
         61:8e:7f:35:52:38:a6:ab:8a:db:4b:7b:a9:b3:45:f3:87:45:
         08:e5:d6:7c:62:39:36:9b:35:be:fa:cb:4c:52:bb:24:2e:d5:
         02:6d:b4:34:9a:9c:e1:a5:eb:3d:7d:a4:f5:88:88:7e:41:95:
         6c:47:31:29:b1:2b:88:0b:77:91:35:7f:af:e8:be:ab:d6:29:
         1c:f6:b1:42:17:8a:55:11:ed:eb:14:e6:87:a9:c9:a3:53:56:
         e8:93:3e:aa:3c:e4:44:7e:2e:f2:ce:d2:e6:94:77:f8:f2:b6:
         f4:10:f7:d9:b2:ff:17:a6:1d:14:b3:7d:49:37:fd:b2:9f:49:
         6a:0b:d0:85:82:af:16:fc:04:63:58:93:ce:d7:10:77:19:1b:
         00:b3:53:5d:b4:ec:1a:8b:cb:1a:10:fa:2a:c3:53:54:b0:d2:
         93:45:2d:06:27:96:b8:95:7e:57:7c:32:79:59:f2:fd:16:ae:
         f0:8c:fa:21:d4:fc:af:59:22:2b:b0:e2:be:95:e9:ef:d0:e1:
         f0:c8:84:ef:df:b7:df:7f:0e:29:7d:c4:cd:0d:53:f1:18:db:
         fd:d4:8d:5a
-----BEGIN CERTIFICATE-----
MIIDXTCCAkWgAwIBAgIQbjtgDNJ63urQ+LSx9JUnmzANBgkqhkiG9w0BAQsFADAW
MRQwEgYDVQQDDAtFYXN5LVJTQSBDQTAeFw0yNDExMDEyMDM2MTZaFw00NDEwMjcy
MDM2MTZaMBoxGDAWBgNVBAMMD3Bpb3hpaS1iYXJyZXRvczCCASIwDQYJKoZIhvcN
AQEBBQADggEPADCCAQoCggEBAPLweisFdCSckHBycaqgNibc0SSLgZ/Jt89GoDvh
+vhHO8sI8Fpw9PxQo+KQnlzZUgH8EKOyAvTZguXMbGNx9eW1KuCUSkokz8Y6SU1Y
YShWy1zDA5L+O2B4rGFzEBwAktDKVz8hO7mnNwNk3kLEEjC0oI8KFc8Ddef5vf7/
rCn+JJZ2eIjNIhuE6v+bVykn/JMlHHNStcO88FPTzjwkOgCThaH2IQZhPVy5UJe4
hBtGdct32SGV1oFVveMtbb6pa0ewKtOjEUstNv2AW9JTWoksea0GM5UaJT7aebRH
QA5vspJ8jsBPrx25zr0IeDqTwK0mTtw97JfyKNxp+i9/PAUCAwEAAaOBojCBnzAJ
BgNVHRMEAjAAMB0GA1UdDgQWBBRst8mW8op4e7mwcytcfXmyVZVhvDBRBgNVHSME
SjBIgBRkBmmnAUYJ060TZdePsLUBMGhWo6EapBgwFjEUMBIGA1UEAwwLRWFzeS1S
U0EgQ0GCFEZji3n0AfkhAL/+Ferm85bi8oP4MBMGA1UdJQQMMAoGCCsGAQUFBwMC
MAsGA1UdDwQEAwIHgDANBgkqhkiG9w0BAQsFAAOCAQEAnNL4eHz9bl7VDBPK4Y5M
gnnNXLZjtVMDJaGNy/7DzI+dbsa8YY5/NVI4pquK20t7qbNF84dFCOXWfGI5Nps1
vvrLTFK7JC7VAm20NJqc4aXrPX2k9YiIfkGVbEcxKbEriAt3kTV/r+i+q9YpHPax
QheKVRHt6xTmh6nJo1NW6JM+qjzkRH4u8s7S5pR3+PK29BD32bL/F6YdFLN9STf9
sp9JagvQhYKvFvwEY1iTztcQdxkbALNTXbTsGovLGhD6KsNTVLDSk0UtBieWuJV+
V3wyeVny/Rau8Iz6IdT8r1kiK7DivpXp79Dh8MiE79+3338OKX3EzQ1T8Rjb/dSN
Wg==
-----END CERTIFICATE-----
