Certificate:
    Data:
        Version: 3 (0x2)
        Serial Number:
            81:32:df:ce:b4:6d:48:0f:9b:94:e7:dc:b2:57:11:35
        Signature Algorithm: sha256WithRSAEncryption
        Issuer: CN=Easy-RSA CA
        Validity
            Not Before: Oct 17 13:44:25 2024 GMT
            Not After : Oct 12 13:44:25 2044 GMT
        Subject: CN=pioxii-campinas
        Subject Public Key Info:
            Public Key Algorithm: rsaEncryption
                RSA Public-Key: (2048 bit)
                Modulus:
                    00:e3:96:a7:28:92:fa:a5:bd:66:be:c2:35:60:7b:
                    d2:e0:8f:30:67:dc:1b:7e:f7:1c:57:84:f1:1c:2b:
                    09:c6:6c:e8:38:99:cb:d1:c0:09:5b:dd:f0:59:fe:
                    93:bd:b2:c3:c9:a7:e5:56:fa:c8:bc:de:6e:70:7e:
                    b0:7e:9c:f0:c6:66:14:a2:59:8b:46:af:59:62:0b:
                    b2:8a:c4:d6:fd:78:78:47:2b:7f:a9:f7:bb:3e:d4:
                    e0:bf:94:2f:44:37:16:e5:d8:80:72:34:29:6f:da:
                    32:19:c2:82:32:19:06:10:f3:da:7d:12:d5:da:36:
                    e4:8b:c6:c5:a7:7d:be:66:6f:ed:1a:04:e6:25:86:
                    ff:02:6f:47:3e:21:d3:7b:a1:5c:80:5e:67:36:48:
                    dd:06:4f:33:ce:34:4b:36:01:12:15:69:d8:8f:28:
                    8c:08:b3:a7:6d:93:18:c7:43:8b:9f:10:5b:d0:43:
                    ba:e2:9c:7e:4c:7a:d4:e3:9c:1d:8e:8b:21:dd:75:
                    b9:af:c1:5e:c3:87:32:05:f8:21:e2:c6:6b:34:be:
                    46:2a:6c:04:ef:d0:d4:46:da:2d:f8:d7:f1:db:8a:
                    e5:e7:42:cc:63:63:42:d7:21:6d:0b:26:9c:8c:0c:
                    30:7d:92:51:ea:0b:62:65:6f:db:17:51:3c:30:e0:
                    9a:d5
                Exponent: 65537 (0x10001)
        X509v3 extensions:
            X509v3 Basic Constraints: 
                CA:FALSE
            X509v3 Subject Key Identifier: 
                3E:22:DB:02:6D:4C:E1:CC:20:44:B5:10:CD:A2:3F:9D:9F:B3:6B:81
            X509v3 Authority Key Identifier: 
                keyid:64:06:69:A7:01:46:09:D3:AD:13:65:D7:8F:B0:B5:01:30:68:56:A3
                DirName:/CN=Easy-RSA CA
                serial:46:63:8B:79:F4:01:F9:21:00:BF:FE:15:EA:E6:F3:96:E2:F2:83:F8

            X509v3 Extended Key Usage: 
                TLS Web Client Authentication
            X509v3 Key Usage: 
                Digital Signature
    Signature Algorithm: sha256WithRSAEncryption
         5f:b9:44:04:76:ba:5d:74:7a:e7:10:fd:75:2b:ce:30:1c:f5:
         28:40:ad:18:c9:18:11:c7:41:53:5b:c5:53:43:20:cd:6a:9d:
         32:5a:f7:5e:f5:1d:06:b2:36:c3:8d:2c:5f:6a:bd:bc:98:90:
         28:28:a4:ed:d9:5c:84:b5:c8:d7:e2:ec:95:b5:0f:8a:23:15:
         ab:b6:d4:39:ba:e6:5c:78:82:b8:b2:ed:3e:91:2f:05:e0:24:
         fe:3d:4d:a6:aa:17:59:12:94:2d:ff:79:41:09:7c:ee:3c:cb:
         c0:38:a0:bc:3c:53:a2:c7:de:18:8b:fc:f7:dd:24:1c:61:1c:
         af:65:67:32:d0:03:12:e4:cc:9f:45:b0:06:a5:c1:d0:ae:81:
         9b:ed:06:6c:41:28:a4:21:86:f3:4a:d4:b5:5b:c8:29:3b:b3:
         c1:28:a9:80:41:db:9f:83:d9:08:24:bc:fd:68:1a:1d:11:d3:
         bd:09:87:34:6b:29:5a:85:be:6f:f4:11:75:58:70:ca:39:d2:
         37:14:c8:3a:ab:41:dd:55:64:63:9d:4c:0a:0e:ba:84:33:2b:
         5d:07:5b:85:0c:4e:78:e8:7e:bb:64:42:ed:4e:93:29:2e:82:
         b5:04:81:e9:e3:f5:93:3d:29:16:54:1e:c5:f9:0b:13:ef:4b:
         2b:e1:8a:5f
-----BEGIN CERTIFICATE-----
MIIDXjCCAkagAwIBAgIRAIEy3860bUgPm5Tn3LJXETUwDQYJKoZIhvcNAQELBQAw
FjEUMBIGA1UEAwwLRWFzeS1SU0EgQ0EwHhcNMjQxMDE3MTM0NDI1WhcNNDQxMDEy
MTM0NDI1WjAaMRgwFgYDVQQDDA9waW94aWktY2FtcGluYXMwggEiMA0GCSqGSIb3
DQEBAQUAA4IBDwAwggEKAoIBAQDjlqcokvqlvWa+wjVge9LgjzBn3Bt+9xxXhPEc
KwnGbOg4mcvRwAlb3fBZ/pO9ssPJp+VW+si83m5wfrB+nPDGZhSiWYtGr1liC7KK
xNb9eHhHK3+p97s+1OC/lC9ENxbl2IByNClv2jIZwoIyGQYQ89p9EtXaNuSLxsWn
fb5mb+0aBOYlhv8Cb0c+IdN7oVyAXmc2SN0GTzPONEs2ARIVadiPKIwIs6dtkxjH
Q4ufEFvQQ7rinH5MetTjnB2OiyHddbmvwV7DhzIF+CHixms0vkYqbATv0NRG2i34
1/HbiuXnQsxjY0LXIW0LJpyMDDB9klHqC2Jlb9sXUTww4JrVAgMBAAGjgaIwgZ8w
CQYDVR0TBAIwADAdBgNVHQ4EFgQUPiLbAm1M4cwgRLUQzaI/nZ+za4EwUQYDVR0j
BEowSIAUZAZppwFGCdOtE2XXj7C1ATBoVqOhGqQYMBYxFDASBgNVBAMMC0Vhc3kt
UlNBIENBghRGY4t59AH5IQC//hXq5vOW4vKD+DATBgNVHSUEDDAKBggrBgEFBQcD
AjALBgNVHQ8EBAMCB4AwDQYJKoZIhvcNAQELBQADggEBAF+5RAR2ul10eucQ/XUr
zjAc9ShArRjJGBHHQVNbxVNDIM1qnTJa9171HQayNsONLF9qvbyYkCgopO3ZXIS1
yNfi7JW1D4ojFau21Dm65lx4griy7T6RLwXgJP49TaaqF1kSlC3/eUEJfO48y8A4
oLw8U6LH3hiL/PfdJBxhHK9lZzLQAxLkzJ9FsAalwdCugZvtBmxBKKQhhvNK1LVb
yCk7s8EoqYBB25+D2QgkvP1oGh0R070JhzRrKVqFvm/0EXVYcMo50jcUyDqrQd1V
ZGOdTAoOuoQzK10HW4UMTnjofrtkQu1OkykugrUEgenj9ZM9KRZUHsX5CxPvSyvh
il8=
-----END CERTIFICATE-----
