Certificate:
    Data:
        Version: 3 (0x2)
        Serial Number:
            ac:ad:cc:f2:78:c9:7c:1e:48:91:9e:97:ae:b1:17:5c
        Signature Algorithm: sha256WithRSAEncryption
        Issuer: CN=Easy-RSA CA
        Validity
            Not Before: Nov  2 15:54:03 2024 GMT
            Not After : Oct 28 15:54:03 2044 GMT
        Subject: CN=pioxii-portovelho
        Subject Public Key Info:
            Public Key Algorithm: rsaEncryption
                RSA Public-Key: (2048 bit)
                Modulus:
                    00:eb:36:18:85:1e:41:56:d3:dc:52:8e:2f:06:74:
                    d1:ed:7e:9d:f2:9f:3e:7f:17:02:d0:1f:56:10:d5:
                    e5:dd:84:e0:e0:69:12:da:33:38:7e:ac:7b:84:04:
                    84:f4:1f:58:a7:8d:5b:f0:7b:38:c9:9e:88:9a:16:
                    fc:25:71:94:54:e4:02:ff:11:8c:1d:00:84:90:fa:
                    86:42:21:8e:5b:bf:92:ab:90:20:17:82:57:39:9c:
                    ca:5a:71:6a:01:3a:07:48:97:f7:fb:25:1f:52:45:
                    a5:b5:4e:9a:b9:a6:58:3d:ae:11:1d:d3:51:25:57:
                    0f:f6:ac:2a:90:9a:59:80:e2:03:43:90:9f:46:07:
                    46:b4:1b:7c:61:58:cc:d8:de:76:12:a1:b3:0e:4a:
                    f8:b4:06:d0:51:f0:53:32:fc:b7:f0:83:fc:27:79:
                    17:59:a7:f8:55:ca:27:ea:6e:1a:26:5c:ea:9e:b1:
                    89:72:a8:62:dd:64:31:2b:7b:c8:fb:71:7a:10:fc:
                    b8:7f:0f:5a:52:dd:e3:29:11:4f:2c:38:2c:68:11:
                    be:91:23:7f:5a:fb:a6:5d:d2:29:d1:4a:98:77:a7:
                    f7:2d:61:67:72:a3:65:07:df:07:c6:ac:2c:c0:d6:
                    6c:de:3f:9e:04:93:2d:da:83:d4:3b:1e:f0:e5:a8:
                    cc:cb
                Exponent: 65537 (0x10001)
        X509v3 extensions:
            X509v3 Basic Constraints: 
                CA:FALSE
            X509v3 Subject Key Identifier: 
                FD:2F:EB:FA:36:FC:31:33:FD:B9:79:3C:E2:BC:AE:45:73:4B:1C:0D
            X509v3 Authority Key Identifier: 
                keyid:64:06:69:A7:01:46:09:D3:AD:13:65:D7:8F:B0:B5:01:30:68:56:A3
                DirName:/CN=Easy-RSA CA
                serial:46:63:8B:79:F4:01:F9:21:00:BF:FE:15:EA:E6:F3:96:E2:F2:83:F8

            X509v3 Extended Key Usage: 
                TLS Web Client Authentication
            X509v3 Key Usage: 
                Digital Signature
    Signature Algorithm: sha256WithRSAEncryption
         5f:d9:21:3c:b8:2c:82:5d:0d:7c:b3:08:b1:a3:ed:92:4e:fd:
         12:39:e4:7f:bf:2e:db:a9:7d:a6:ae:f9:83:fb:66:fe:05:38:
         64:9a:07:19:32:96:3b:38:4f:a9:c0:26:e0:73:82:e3:c7:69:
         0a:9a:7a:52:bd:2d:14:e4:e8:49:b1:f4:78:bc:5e:39:a4:77:
         d4:13:e7:fe:7b:c9:34:36:35:4e:5a:b8:aa:8a:52:26:5c:b5:
         f3:d7:05:86:13:d6:0d:9d:11:cf:ba:ee:87:21:a7:29:19:41:
         f0:98:b0:9c:a7:02:31:bc:0b:98:d9:ca:3d:5f:14:13:e2:f3:
         8a:ac:9e:3c:59:32:88:f6:e0:b1:e8:b8:0b:ed:74:38:96:a7:
         13:48:85:86:6a:e3:0d:ba:d9:e3:2a:b7:a3:ae:de:c8:b9:38:
         92:0f:74:d2:9f:d0:a5:31:b5:52:4d:07:7b:80:a4:df:23:88:
         8b:27:58:42:66:e4:45:3e:a1:46:41:f2:73:18:80:45:48:e3:
         55:cf:0c:e5:09:5f:59:1e:42:90:16:07:63:85:6b:ef:4a:20:
         ef:58:52:4a:85:01:78:92:ac:c1:14:d0:e8:c9:3d:45:64:65:
         6d:2d:d8:20:ef:04:a0:bf:ad:95:39:38:42:ae:83:71:3d:ec:
         9f:96:e0:4a
-----BEGIN CERTIFICATE-----
MIIDYDCCAkigAwIBAgIRAKytzPJ4yXweSJGel66xF1wwDQYJKoZIhvcNAQELBQAw
FjEUMBIGA1UEAwwLRWFzeS1SU0EgQ0EwHhcNMjQxMTAyMTU1NDAzWhcNNDQxMDI4
MTU1NDAzWjAcMRowGAYDVQQDDBFwaW94aWktcG9ydG92ZWxobzCCASIwDQYJKoZI
hvcNAQEBBQADggEPADCCAQoCggEBAOs2GIUeQVbT3FKOLwZ00e1+nfKfPn8XAtAf
VhDV5d2E4OBpEtozOH6se4QEhPQfWKeNW/B7OMmeiJoW/CVxlFTkAv8RjB0AhJD6
hkIhjlu/kquQIBeCVzmcylpxagE6B0iX9/slH1JFpbVOmrmmWD2uER3TUSVXD/as
KpCaWYDiA0OQn0YHRrQbfGFYzNjedhKhsw5K+LQG0FHwUzL8t/CD/Cd5F1mn+FXK
J+puGiZc6p6xiXKoYt1kMSt7yPtxehD8uH8PWlLd4ykRTyw4LGgRvpEjf1r7pl3S
KdFKmHen9y1hZ3KjZQffB8asLMDWbN4/ngSTLdqD1Dse8OWozMsCAwEAAaOBojCB
nzAJBgNVHRMEAjAAMB0GA1UdDgQWBBT9L+v6NvwxM/25eTzivK5Fc0scDTBRBgNV
HSMESjBIgBRkBmmnAUYJ060TZdePsLUBMGhWo6EapBgwFjEUMBIGA1UEAwwLRWFz
eS1SU0EgQ0GCFEZji3n0AfkhAL/+Ferm85bi8oP4MBMGA1UdJQQMMAoGCCsGAQUF
BwMCMAsGA1UdDwQEAwIHgDANBgkqhkiG9w0BAQsFAAOCAQEAX9khPLgsgl0NfLMI
saPtkk79Ejnkf78u26l9pq75g/tm/gU4ZJoHGTKWOzhPqcAm4HOC48dpCpp6Ur0t
FOToSbH0eLxeOaR31BPn/nvJNDY1Tlq4qopSJly189cFhhPWDZ0Rz7ruhyGnKRlB
8JiwnKcCMbwLmNnKPV8UE+LziqyePFkyiPbgsei4C+10OJanE0iFhmrjDbrZ4yq3
o67eyLk4kg900p/QpTG1Uk0He4Ck3yOIiydYQmbkRT6hRkHycxiARUjjVc8M5Qlf
WR5CkBYHY4Vr70og71hSSoUBeJKswRTQ6Mk9RWRlbS3YIO8EoL+tlTk4Qq6DcT3s
n5bgSg==
-----END CERTIFICATE-----
