Certificate:
    Data:
        Version: 3 (0x2)
        Serial Number:
            c6:aa:2f:fc:e7:77:25:45:c5:ef:19:ea:5b:31:86:cf
        Signature Algorithm: sha256WithRSAEncryption
        Issuer: CN=Easy-RSA CA
        Validity
            Not Before: Oct 17 13:51:43 2024 GMT
            Not After : Oct 12 13:51:43 2044 GMT
        Subject: CN=pioxii-dourados
        Subject Public Key Info:
            Public Key Algorithm: rsaEncryption
                RSA Public-Key: (2048 bit)
                Modulus:
                    00:a8:22:22:5f:0e:98:06:0e:55:c0:71:12:3c:52:
                    5f:3f:7e:06:52:5d:f1:21:9f:04:a0:aa:22:bc:61:
                    3f:3f:e6:eb:e3:f3:6e:56:27:df:88:78:52:99:80:
                    31:54:f5:89:e7:d1:c9:38:e8:5c:9c:45:bb:d5:f6:
                    ac:94:e9:f5:99:f1:a0:ba:7f:58:61:2a:6c:b5:c2:
                    32:78:16:f0:f6:c3:05:b7:b9:5a:8d:ff:63:36:2a:
                    19:fa:60:40:6e:a9:e6:93:04:c3:8f:57:fe:ec:55:
                    a1:ab:fd:da:8f:a7:a6:50:df:ed:0c:67:dd:cd:82:
                    93:2f:84:83:32:38:e9:ed:9b:76:25:0b:bf:dc:69:
                    b0:7f:32:11:08:84:2c:54:d0:a6:e9:8f:b1:76:0b:
                    99:06:5f:20:f0:c7:05:5a:61:ef:32:a2:3e:f9:19:
                    6f:ac:f3:79:c0:9f:18:bb:0a:d4:e1:8d:4f:28:cd:
                    e6:b7:41:22:67:79:fd:76:7c:29:36:07:c0:c7:d2:
                    1b:bc:cd:67:3e:72:29:70:1e:1a:98:92:5b:5b:12:
                    51:53:a9:5f:7b:b7:0b:2c:8a:c5:b3:a4:a0:99:a7:
                    35:0a:eb:f5:0e:19:ad:71:80:2b:e4:9d:54:cc:f0:
                    54:88:44:a5:ac:94:4b:e7:30:21:88:fc:86:90:a2:
                    3c:e7
                Exponent: 65537 (0x10001)
        X509v3 extensions:
            X509v3 Basic Constraints: 
                CA:FALSE
            X509v3 Subject Key Identifier: 
                DA:04:03:C1:37:B8:BE:1D:CE:5F:1A:42:99:B7:91:23:45:72:41:B7
            X509v3 Authority Key Identifier: 
                keyid:64:06:69:A7:01:46:09:D3:AD:13:65:D7:8F:B0:B5:01:30:68:56:A3
                DirName:/CN=Easy-RSA CA
                serial:46:63:8B:79:F4:01:F9:21:00:BF:FE:15:EA:E6:F3:96:E2:F2:83:F8

            X509v3 Extended Key Usage: 
                TLS Web Client Authentication
            X509v3 Key Usage: 
                Digital Signature
    Signature Algorithm: sha256WithRSAEncryption
         67:48:13:bb:69:80:52:8b:b7:75:a1:b6:3c:c1:3e:13:67:fe:
         86:98:a2:28:ea:31:e8:70:db:a7:cb:d8:a3:b7:43:84:1d:3a:
         86:24:d8:4e:0d:41:c0:2f:e2:05:01:7b:5e:19:aa:86:fc:83:
         f8:48:d9:c7:9e:96:2e:73:a5:ba:40:95:05:99:2f:c1:92:97:
         77:ea:ef:55:7a:08:05:3e:2e:15:d4:80:21:2b:0c:e4:f0:6e:
         20:8a:d1:5e:27:34:18:0e:77:3e:47:b6:d6:61:a4:46:c8:5d:
         1b:8b:07:ad:5e:a7:37:d2:15:38:36:2b:16:63:7b:09:b4:a9:
         d5:24:d8:d1:44:4b:5c:a4:0c:58:60:80:f8:f7:ea:4f:75:b4:
         1b:f1:46:bc:50:1d:70:7a:eb:a3:ff:92:92:2c:d5:e3:c6:b1:
         75:b8:6e:d5:01:c4:51:32:fb:25:42:0b:a3:05:ae:9a:f4:f0:
         dc:7f:ff:ec:05:ad:c2:13:f5:6f:20:92:c9:3b:9d:18:58:de:
         fc:6b:26:db:a1:b3:9c:41:55:30:1b:7a:b6:38:28:a8:f4:77:
         cb:e7:73:67:9f:4e:a3:7a:a6:43:19:9e:ff:23:88:38:47:a3:
         28:eb:fb:4a:fd:1b:c4:73:6e:60:ed:46:ea:ba:e1:29:93:d7:
         7d:9d:69:a3
-----BEGIN CERTIFICATE-----
MIIDXjCCAkagAwIBAgIRAMaqL/zndyVFxe8Z6lsxhs8wDQYJKoZIhvcNAQELBQAw
FjEUMBIGA1UEAwwLRWFzeS1SU0EgQ0EwHhcNMjQxMDE3MTM1MTQzWhcNNDQxMDEy
MTM1MTQzWjAaMRgwFgYDVQQDDA9waW94aWktZG91cmFkb3MwggEiMA0GCSqGSIb3
DQEBAQUAA4IBDwAwggEKAoIBAQCoIiJfDpgGDlXAcRI8Ul8/fgZSXfEhnwSgqiK8
YT8/5uvj825WJ9+IeFKZgDFU9Ynn0ck46FycRbvV9qyU6fWZ8aC6f1hhKmy1wjJ4
FvD2wwW3uVqN/2M2Khn6YEBuqeaTBMOPV/7sVaGr/dqPp6ZQ3+0MZ93NgpMvhIMy
OOntm3YlC7/cabB/MhEIhCxU0Kbpj7F2C5kGXyDwxwVaYe8yoj75GW+s83nAnxi7
CtThjU8ozea3QSJnef12fCk2B8DH0hu8zWc+cilwHhqYkltbElFTqV97twssisWz
pKCZpzUK6/UOGa1xgCvknVTM8FSIRKWslEvnMCGI/IaQojznAgMBAAGjgaIwgZ8w
CQYDVR0TBAIwADAdBgNVHQ4EFgQU2gQDwTe4vh3OXxpCmbeRI0VyQbcwUQYDVR0j
BEowSIAUZAZppwFGCdOtE2XXj7C1ATBoVqOhGqQYMBYxFDASBgNVBAMMC0Vhc3kt
UlNBIENBghRGY4t59AH5IQC//hXq5vOW4vKD+DATBgNVHSUEDDAKBggrBgEFBQcD
AjALBgNVHQ8EBAMCB4AwDQYJKoZIhvcNAQELBQADggEBAGdIE7tpgFKLt3WhtjzB
PhNn/oaYoijqMehw26fL2KO3Q4QdOoYk2E4NQcAv4gUBe14Zqob8g/hI2ceeli5z
pbpAlQWZL8GSl3fq71V6CAU+LhXUgCErDOTwbiCK0V4nNBgOdz5HttZhpEbIXRuL
B61epzfSFTg2KxZjewm0qdUk2NFES1ykDFhggPj36k91tBvxRrxQHXB666P/kpIs
1ePGsXW4btUBxFEy+yVCC6MFrpr08Nx//+wFrcIT9W8gksk7nRhY3vxrJtuhs5xB
VTAberY4KKj0d8vnc2efTqN6pkMZnv8jiDhHoyjr+0r9G8RzbmDtRuq64SmT132d
aaM=
-----END CERTIFICATE-----
