Certificate:
    Data:
        Version: 3 (0x2)
        Serial Number:
            41:6d:4a:37:43:e7:6c:d2:23:01:eb:41:15:e0:34:fa
        Signature Algorithm: sha256WithRSAEncryption
        Issuer: CN=Easy-RSA CA
        Validity
            Not Before: Nov  7 12:10:57 2024 GMT
            Not After : Nov  2 12:10:57 2044 GMT
        Subject: CN=tanger
        Subject Public Key Info:
            Public Key Algorithm: rsaEncryption
                RSA Public-Key: (2048 bit)
                Modulus:
                    00:b7:af:9d:90:4a:f3:5d:6e:7d:8d:5a:8c:78:be:
                    42:22:bb:3b:27:43:0c:b2:be:92:f9:d7:43:c0:d7:
                    9a:d8:96:d7:f8:cd:df:40:ed:09:8c:c5:9a:20:f4:
                    fa:94:38:95:2d:4f:4a:98:0a:af:33:e8:33:dd:9a:
                    c7:60:57:6a:87:42:3a:21:bd:da:69:99:fa:ac:2a:
                    bb:ed:37:33:fe:a0:85:10:12:4f:7f:c5:0b:38:88:
                    ed:67:d9:3c:b0:6e:82:50:6a:7b:40:f4:78:04:d3:
                    01:58:07:d4:d2:a8:fa:31:e6:d4:88:c7:67:bc:1c:
                    da:bb:71:90:a3:ce:53:cb:57:20:91:8c:59:c9:b3:
                    45:e8:20:0a:e0:1e:e0:2c:bd:51:0d:82:d5:61:55:
                    bd:9d:53:0f:51:d1:61:13:c1:d7:c6:47:c2:88:e7:
                    28:99:d4:17:0e:44:7b:47:30:46:60:4a:77:83:23:
                    91:6d:3f:2b:d6:5b:07:b3:6b:7b:09:d8:8e:3b:30:
                    f5:9d:b6:b8:d8:99:1d:e7:6f:61:20:8a:cb:5f:03:
                    41:f1:95:10:01:d9:a3:65:35:5c:22:2d:67:85:74:
                    45:69:8a:58:e2:d4:f0:06:6b:d5:91:e7:ed:10:9e:
                    33:e9:96:14:ee:03:d2:b3:70:50:66:81:65:de:7f:
                    72:31
                Exponent: 65537 (0x10001)
        X509v3 extensions:
            X509v3 Basic Constraints: 
                CA:FALSE
            X509v3 Subject Key Identifier: 
                4E:30:C9:F0:48:9B:05:AF:2D:8A:91:00:D1:FC:FF:77:70:FD:3A:CE
            X509v3 Authority Key Identifier: 
                keyid:64:06:69:A7:01:46:09:D3:AD:13:65:D7:8F:B0:B5:01:30:68:56:A3
                DirName:/CN=Easy-RSA CA
                serial:46:63:8B:79:F4:01:F9:21:00:BF:FE:15:EA:E6:F3:96:E2:F2:83:F8

            X509v3 Extended Key Usage: 
                TLS Web Client Authentication
            X509v3 Key Usage: 
                Digital Signature
    Signature Algorithm: sha256WithRSAEncryption
         69:27:ab:e5:e6:58:47:ff:01:fa:8c:07:98:96:98:76:2a:7c:
         ec:b7:30:5e:b5:1d:65:e0:97:80:a0:a5:cd:2a:88:7f:ee:fe:
         1d:10:8e:a3:ef:a9:d1:a3:fb:f8:1d:e4:5a:e4:3e:6c:8a:d3:
         fe:13:1b:ba:5f:38:6d:e0:89:c5:dc:ce:48:7d:88:1a:50:35:
         40:5e:c8:d4:c1:1b:ad:e1:f2:80:0f:14:4d:36:35:58:3e:a8:
         b4:05:09:fe:95:dd:d5:0c:4f:4c:79:7a:85:00:d4:1a:d8:1e:
         cc:26:bb:de:e9:4f:e3:7e:9f:e8:02:49:a3:a3:18:75:11:49:
         0d:c6:35:91:f4:35:4f:32:75:1f:ba:92:48:58:b9:6f:8e:8a:
         d7:1e:fc:84:5b:86:31:03:ab:92:ee:21:20:ec:4e:87:5f:9a:
         68:08:18:2f:fb:77:60:53:ed:be:a2:dc:c8:3d:ea:57:d5:7a:
         d3:c9:5b:70:a6:d1:5e:36:3e:5e:8f:7a:47:c3:28:f5:99:a9:
         0b:ad:61:91:73:b5:8c:11:f7:64:8c:79:b7:e8:3b:ca:80:a2:
         73:dc:26:80:8f:c9:d8:b4:20:55:81:99:85:94:48:48:09:aa:
         a0:b7:2d:32:72:d4:06:9a:22:f6:38:7c:ff:49:f3:51:e5:77:
         d0:12:7a:e6
-----BEGIN CERTIFICATE-----
MIIDVDCCAjygAwIBAgIQQW1KN0PnbNIjAetBFeA0+jANBgkqhkiG9w0BAQsFADAW
MRQwEgYDVQQDDAtFYXN5LVJTQSBDQTAeFw0yNDExMDcxMjEwNTdaFw00NDExMDIx
MjEwNTdaMBExDzANBgNVBAMMBnRhbmdlcjCCASIwDQYJKoZIhvcNAQEBBQADggEP
ADCCAQoCggEBALevnZBK811ufY1ajHi+QiK7OydDDLK+kvnXQ8DXmtiW1/jN30Dt
CYzFmiD0+pQ4lS1PSpgKrzPoM92ax2BXaodCOiG92mmZ+qwqu+03M/6ghRAST3/F
CziI7WfZPLBuglBqe0D0eATTAVgH1NKo+jHm1IjHZ7wc2rtxkKPOU8tXIJGMWcmz
ReggCuAe4Cy9UQ2C1WFVvZ1TD1HRYRPB18ZHwojnKJnUFw5Ee0cwRmBKd4MjkW0/
K9ZbB7NrewnYjjsw9Z22uNiZHedvYSCKy18DQfGVEAHZo2U1XCItZ4V0RWmKWOLU
8AZr1ZHn7RCeM+mWFO4D0rNwUGaBZd5/cjECAwEAAaOBojCBnzAJBgNVHRMEAjAA
MB0GA1UdDgQWBBROMMnwSJsFry2KkQDR/P93cP06zjBRBgNVHSMESjBIgBRkBmmn
AUYJ060TZdePsLUBMGhWo6EapBgwFjEUMBIGA1UEAwwLRWFzeS1SU0EgQ0GCFEZj
i3n0AfkhAL/+Ferm85bi8oP4MBMGA1UdJQQMMAoGCCsGAQUFBwMCMAsGA1UdDwQE
AwIHgDANBgkqhkiG9w0BAQsFAAOCAQEAaSer5eZYR/8B+owHmJaYdip87LcwXrUd
ZeCXgKClzSqIf+7+HRCOo++p0aP7+B3kWuQ+bIrT/hMbul84beCJxdzOSH2IGlA1
QF7I1MEbreHygA8UTTY1WD6otAUJ/pXd1QxPTHl6hQDUGtgezCa73ulP436f6AJJ
o6MYdRFJDcY1kfQ1TzJ1H7qSSFi5b46K1x78hFuGMQOrku4hIOxOh1+aaAgYL/t3
YFPtvqLcyD3qV9V608lbcKbRXjY+Xo96R8Mo9ZmpC61hkXO1jBH3ZIx5t+g7yoCi
c9wmgI/J2LQgVYGZhZRISAmqoLctMnLUBpoi9jh8/0nzUeV30BJ65g==
-----END CERTIFICATE-----
