Certificate:
    Data:
        Version: 3 (0x2)
        Serial Number:
            99:14:4c:52:2a:2c:cc:6b:18:ce:0e:9e:3a:c9:1a:96
        Signature Algorithm: sha256WithRSAEncryption
        Issuer: CN=Easy-RSA CA
        Validity
            Not Before: Nov  4 11:42:19 2024 GMT
            Not After : Oct 30 11:42:19 2044 GMT
        Subject: CN=client1-sec
        Subject Public Key Info:
            Public Key Algorithm: rsaEncryption
                RSA Public-Key: (2048 bit)
                Modulus:
                    00:bb:fc:50:ef:ec:cc:5d:44:9d:28:de:95:bd:5c:
                    67:05:4f:57:e5:53:dc:d0:da:9d:a4:eb:63:26:bb:
                    32:1b:ab:93:6d:52:07:9c:6a:31:36:69:31:0e:89:
                    49:cc:57:44:76:b9:0c:ef:4d:5c:d1:a4:7c:46:94:
                    31:2a:73:35:28:0e:b0:5f:f7:0d:af:16:e0:c3:d5:
                    c8:ac:9e:87:cc:42:02:56:f6:07:1f:2d:9b:ab:ab:
                    0f:f4:93:73:8a:84:d7:36:f6:81:e0:7a:6f:88:88:
                    ba:84:c6:94:35:31:98:d9:59:84:6a:8c:b0:14:39:
                    bd:62:97:4e:bd:2e:ec:6d:f9:aa:3b:83:77:b8:f2:
                    cb:26:c2:a0:58:72:b6:b4:20:eb:d8:4b:6d:b9:19:
                    4b:db:d6:35:2c:6f:46:e3:bd:ed:0b:0d:bc:af:54:
                    b9:e6:41:ee:37:06:ba:bc:b5:33:51:ac:e8:07:4f:
                    9c:c9:49:34:24:c6:84:be:a4:83:fd:fc:7a:76:04:
                    e8:aa:65:fc:7d:cb:9f:7c:1e:13:8e:ee:ba:63:a9:
                    29:07:e5:e2:dc:c0:7e:65:a5:cb:fd:5c:d6:e8:62:
                    95:69:ca:58:72:df:54:90:ea:70:3b:0e:b4:d0:d5:
                    54:cb:87:99:c7:01:80:05:48:f0:df:ae:0e:c9:5b:
                    4e:97
                Exponent: 65537 (0x10001)
        X509v3 extensions:
            X509v3 Basic Constraints: 
                CA:FALSE
            X509v3 Subject Key Identifier: 
                2F:54:5A:21:7A:4D:AE:77:6F:48:7E:18:E6:B6:B6:11:C6:62:1F:D9
            X509v3 Authority Key Identifier: 
                keyid:64:06:69:A7:01:46:09:D3:AD:13:65:D7:8F:B0:B5:01:30:68:56:A3
                DirName:/CN=Easy-RSA CA
                serial:46:63:8B:79:F4:01:F9:21:00:BF:FE:15:EA:E6:F3:96:E2:F2:83:F8

            X509v3 Extended Key Usage: 
                TLS Web Client Authentication
            X509v3 Key Usage: 
                Digital Signature
    Signature Algorithm: sha256WithRSAEncryption
         a7:1e:11:54:e4:84:94:cd:99:ce:6b:8d:a4:2d:12:0e:25:5e:
         f6:af:83:86:05:c9:03:a5:e2:3b:10:c7:b0:c0:2d:eb:bf:30:
         e9:32:96:6e:86:2f:23:ee:be:c4:66:cd:1b:b3:50:60:65:d1:
         77:ce:18:ba:e5:95:92:e2:e4:2b:99:f8:1c:ec:5f:0e:21:1b:
         31:9e:c7:2e:30:58:b3:10:92:30:97:b7:3e:e8:62:a0:eb:1f:
         da:98:0c:99:22:e8:c7:e6:0f:a3:db:65:75:a0:d2:0e:f4:d3:
         e6:98:a5:63:54:87:53:66:39:a2:63:c4:b7:14:f6:e8:97:75:
         db:95:ff:4f:7d:01:39:23:19:37:11:9e:9c:df:30:be:5a:26:
         e3:46:4d:de:74:1a:56:5f:e4:4d:9b:21:90:74:5e:cd:90:c3:
         36:21:51:43:9b:17:1d:e1:23:2f:2b:fc:8e:19:35:71:3d:e7:
         7b:7c:44:b2:18:b9:a0:08:5c:76:6f:7f:55:cf:61:7f:07:c0:
         05:af:75:50:bd:f9:73:48:0a:ba:04:64:f4:48:0a:9c:db:4d:
         06:73:54:41:12:e0:ba:4b:35:fa:39:43:e8:a0:e1:14:87:68:
         89:94:7d:bb:f1:b4:39:20:9f:38:36:9a:82:fe:90:6c:55:ac:
         89:9b:ec:97
-----BEGIN CERTIFICATE-----
MIIDWjCCAkKgAwIBAgIRAJkUTFIqLMxrGM4OnjrJGpYwDQYJKoZIhvcNAQELBQAw
FjEUMBIGA1UEAwwLRWFzeS1SU0EgQ0EwHhcNMjQxMTA0MTE0MjE5WhcNNDQxMDMw
MTE0MjE5WjAWMRQwEgYDVQQDDAtjbGllbnQxLXNlYzCCASIwDQYJKoZIhvcNAQEB
BQADggEPADCCAQoCggEBALv8UO/szF1EnSjelb1cZwVPV+VT3NDanaTrYya7Mhur
k21SB5xqMTZpMQ6JScxXRHa5DO9NXNGkfEaUMSpzNSgOsF/3Da8W4MPVyKyeh8xC
Alb2Bx8tm6urD/STc4qE1zb2geB6b4iIuoTGlDUxmNlZhGqMsBQ5vWKXTr0u7G35
qjuDd7jyyybCoFhytrQg69hLbbkZS9vWNSxvRuO97QsNvK9UueZB7jcGury1M1Gs
6AdPnMlJNCTGhL6kg/38enYE6Kpl/H3Ln3weE47uumOpKQfl4tzAfmWly/1c1uhi
lWnKWHLfVJDqcDsOtNDVVMuHmccBgAVI8N+uDslbTpcCAwEAAaOBojCBnzAJBgNV
HRMEAjAAMB0GA1UdDgQWBBQvVFohek2ud29IfhjmtrYRxmIf2TBRBgNVHSMESjBI
gBRkBmmnAUYJ060TZdePsLUBMGhWo6EapBgwFjEUMBIGA1UEAwwLRWFzeS1SU0Eg
Q0GCFEZji3n0AfkhAL/+Ferm85bi8oP4MBMGA1UdJQQMMAoGCCsGAQUFBwMCMAsG
A1UdDwQEAwIHgDANBgkqhkiG9w0BAQsFAAOCAQEApx4RVOSElM2ZzmuNpC0SDiVe
9q+DhgXJA6XiOxDHsMAt678w6TKWboYvI+6+xGbNG7NQYGXRd84YuuWVkuLkK5n4
HOxfDiEbMZ7HLjBYsxCSMJe3PuhioOsf2pgMmSLox+YPo9tldaDSDvTT5pilY1SH
U2Y5omPEtxT26Jd125X/T30BOSMZNxGenN8wvlom40ZN3nQaVl/kTZshkHRezZDD
NiFRQ5sXHeEjLyv8jhk1cT3ne3xEshi5oAhcdm9/Vc9hfwfABa91UL35c0gKugRk
9EgKnNtNBnNUQRLguks1+jlD6KDhFIdoiZR9u/G0OSCfODaagv6QbFWsiZvslw==
-----END CERTIFICATE-----
